; Function Attrs: mustprogress uwtable
define hidden void @_ZN11mpf_manager11renormalizeEjjRlR3mpz(ptr noundef nonnull align 8 dereferenceable(840) %this, i32 %ebits, i32 noundef %sbits, ptr nocapture noundef nonnull align 8 dereferenceable(8) %exp, ptr noundef nonnull align 8 dereferenceable(16) %sig) local_unnamed_addr #5 align 2 {
entry:
  %0 = load i32, ptr %sig, align 8
  %cmp.i = icmp eq i32 %0, 0
  br i1 %cmp.i, label %while.end13, label %if.end

if.end:                                           ; preds = %entry
  %m_powers2 = getelementptr inbounds i8, ptr %this, i64 736
  %call2 = tail call noundef nonnull align 8 dereferenceable(16) ptr @_ZN11mpf_manager7powers2clEjb(ptr noundef nonnull align 8 dereferenceable(104) %m_powers2, i32 noundef %sbits, i1 noundef zeroext false)
  %m_mpz_manager3 = getelementptr inbounds i8, ptr %this, i64 728
  %m_kind.i.i.i = getelementptr inbounds i8, ptr %sig, i64 4
  %m_kind.i5.i.i = getelementptr inbounds i8, ptr %call2, i64 4
  br label %while.cond

while.cond:                                       ; preds = %while.body, %if.end
  %1 = load ptr, ptr %m_mpz_manager3, align 8
  %bf.load.i.i.i = load i8, ptr %m_kind.i.i.i, align 4
  %bf.clear.i.i.i = and i8 %bf.load.i.i.i, 1
  %cmp.i.i.i = icmp eq i8 %bf.clear.i.i.i, 0
  br i1 %cmp.i.i.i, label %land.lhs.true.i.i, label %_ZN11mpz_managerILb0EE2geERK3mpzS3_.exit

land.lhs.true.i.i:                                ; preds = %while.cond
  %bf.load.i6.i.i = load i8, ptr %m_kind.i5.i.i, align 4
  %bf.clear.i7.i.i = and i8 %bf.load.i6.i.i, 1
  %cmp.i8.i.i = icmp eq i8 %bf.clear.i7.i.i, 0
  br i1 %cmp.i8.i.i, label %if.then.i.i, label %_ZN11mpz_managerILb0EE2geERK3mpzS3_.exit

if.then.i.i:                                      ; preds = %land.lhs.true.i.i
  %2 = load i32, ptr %sig, align 8
  %3 = load i32, ptr %call2, align 8
  %cmp.i.i = icmp slt i32 %2, %3
  br i1 %cmp.i.i, label %while.end, label %while.body

_ZN11mpz_managerILb0EE2geERK3mpzS3_.exit:         ; preds = %while.cond, %land.lhs.true.i.i
  %call4.i.i = tail call noundef i32 @_ZN11mpz_managerILb0EE11big_compareERK3mpzS3_(ptr noundef nonnull align 8 dereferenceable(600) %1, ptr noundef nonnull align 8 dereferenceable(16) %sig, ptr noundef nonnull align 8 dereferenceable(16) %call2)
  %cmp5.i.i = icmp slt i32 %call4.i.i, 0
  br i1 %cmp5.i.i, label %while.end, label %while.body

while.body:                                       ; preds = %if.then.i.i, %_ZN11mpz_managerILb0EE2geERK3mpzS3_.exit
  %4 = load ptr, ptr %m_mpz_manager3, align 8
  tail call void @_ZN11mpz_managerILb0EE13machine_div2kER3mpzj(ptr noundef nonnull align 8 dereferenceable(600) %4, ptr noundef nonnull align 8 dereferenceable(16) %sig, i32 noundef 1)
  %5 = load i64, ptr %exp, align 8
  %inc = add nsw i64 %5, 1
  store i64 %inc, ptr %exp, align 8
  br label %while.cond, !llvm.loop !20

while.end:                                        ; preds = %if.then.i.i, %_ZN11mpz_managerILb0EE2geERK3mpzS3_.exit
  %sub = add i32 %sbits, -1
  %call7 = tail call noundef nonnull align 8 dereferenceable(16) ptr @_ZN11mpf_manager7powers2clEjb(ptr noundef nonnull align 8 dereferenceable(104) %m_powers2, i32 noundef %sub, i1 noundef zeroext false)
  %m_kind.i5.i = getelementptr inbounds i8, ptr %call7, i64 4
  br label %while.cond8

while.cond8:                                      ; preds = %while.body11, %while.end
  %6 = load ptr, ptr %m_mpz_manager3, align 8
  %bf.load.i.i = load i8, ptr %m_kind.i.i.i, align 4
  %bf.clear.i.i = and i8 %bf.load.i.i, 1
  %cmp.i.i7 = icmp eq i8 %bf.clear.i.i, 0
  br i1 %cmp.i.i7, label %land.lhs.true.i, label %_ZN11mpz_managerILb0EE2ltERK3mpzS3_.exit

land.lhs.true.i:                                  ; preds = %while.cond8
  %bf.load.i6.i = load i8, ptr %m_kind.i5.i, align 4
  %bf.clear.i7.i = and i8 %bf.load.i6.i, 1
  %cmp.i8.i = icmp eq i8 %bf.clear.i7.i, 0
  br i1 %cmp.i8.i, label %if.then.i, label %_ZN11mpz_managerILb0EE2ltERK3mpzS3_.exit

if.then.i:                                        ; preds = %land.lhs.true.i
  %7 = load i32, ptr %sig, align 8
  %8 = load i32, ptr %call7, align 8
  %cmp.i8 = icmp slt i32 %7, %8
  br i1 %cmp.i8, label %while.body11, label %while.end13

_ZN11mpz_managerILb0EE2ltERK3mpzS3_.exit:         ; preds = %while.cond8, %land.lhs.true.i
  %call4.i = tail call noundef i32 @_ZN11mpz_managerILb0EE11big_compareERK3mpzS3_(ptr noundef nonnull align 8 dereferenceable(600) %6, ptr noundef nonnull align 8 dereferenceable(16) %sig, ptr noundef nonnull align 8 dereferenceable(16) %call7)
  %cmp5.i = icmp slt i32 %call4.i, 0
  br i1 %cmp5.i, label %_ZN11mpz_managerILb0EE2ltERK3mpzS3_.exit.while.body11_crit_edge, label %while.end13

_ZN11mpz_managerILb0EE2ltERK3mpzS3_.exit.while.body11_crit_edge: ; preds = %_ZN11mpz_managerILb0EE2ltERK3mpzS3_.exit
  %.pre = load ptr, ptr %m_mpz_manager3, align 8
  br label %while.body11

while.body11:                                     ; preds = %_ZN11mpz_managerILb0EE2ltERK3mpzS3_.exit.while.body11_crit_edge, %if.then.i
  %9 = phi ptr [ %.pre, %_ZN11mpz_managerILb0EE2ltERK3mpzS3_.exit.while.body11_crit_edge ], [ %6, %if.then.i ]
  tail call void @_ZN11mpz_managerILb0EE5mul2kER3mpzj(ptr noundef nonnull align 8 dereferenceable(600) %9, ptr noundef nonnull align 8 dereferenceable(16) %sig, i32 noundef 1)
  %10 = load i64, ptr %exp, align 8
  %dec = add nsw i64 %10, -1
  store i64 %dec, ptr %exp, align 8
  br label %while.cond8, !llvm.loop !21

while.end13:                                      ; preds = %if.then.i, %_ZN11mpz_managerILb0EE2ltERK3mpzS3_.exit, %entry
  ret void
}